; ModuleID = '46/3185.c'
source_filename = "46/3185.c"
target datalayout = "e-m:e-p270:32:32-p271:32:32-p272:64:64-i64:64-f80:128-n8:16:32:64-S128"
target triple = "x86_64-pc-linux-gnu"

@.str = private unnamed_addr constant [5 x i8] c"%d%d\00", align 1
@.str.1 = private unnamed_addr constant [3 x i8] c"%d\00", align 1
@.str.2 = private unnamed_addr constant [4 x i8] c"%d\0A\00", align 1

; Function Attrs: noinline nounwind uwtable
define dso_local i32 @main() #0 {
  %1 = alloca i32, align 4
  %2 = alloca [100 x [100 x i32]], align 16
  %3 = alloca i32, align 4
  %4 = alloca i32, align 4
  %5 = alloca i32, align 4
  %6 = alloca i32, align 4
  %7 = alloca i32, align 4
  %8 = alloca i32, align 4
  store i32 0, i32* %1, align 4
  %9 = bitcast [100 x [100 x i32]]* %2 to i8*
  call void @llvm.memset.p0i8.i64(i8* align 16 %9, i8 0, i64 40000, i1 false)
  store i32 0, i32* %8, align 4
  %10 = call i32 (i8*, ...) @__isoc99_scanf(i8* getelementptr inbounds ([5 x i8], [5 x i8]* @.str, i64 0, i64 0), i32* %5, i32* %6)
  store i32 0, i32* %3, align 4
  br label %11

11:                                               ; preds = %32, %0
  %12 = load i32, i32* %3, align 4
  %13 = load i32, i32* %5, align 4
  %14 = icmp slt i32 %12, %13
  br i1 %14, label %15, label %35

15:                                               ; preds = %11
  store i32 0, i32* %4, align 4
  br label %16

16:                                               ; preds = %28, %15
  %17 = load i32, i32* %4, align 4
  %18 = load i32, i32* %6, align 4
  %19 = icmp slt i32 %17, %18
  br i1 %19, label %20, label %31

20:                                               ; preds = %16
  %21 = load i32, i32* %3, align 4
  %22 = sext i32 %21 to i64
  %23 = getelementptr inbounds [100 x [100 x i32]], [100 x [100 x i32]]* %2, i64 0, i64 %22
  %24 = load i32, i32* %4, align 4
  %25 = sext i32 %24 to i64
  %26 = getelementptr inbounds [100 x i32], [100 x i32]* %23, i64 0, i64 %25
  %27 = call i32 (i8*, ...) @__isoc99_scanf(i8* getelementptr inbounds ([3 x i8], [3 x i8]* @.str.1, i64 0, i64 0), i32* %26)
  br label %28

28:                                               ; preds = %20
  %29 = load i32, i32* %4, align 4
  %30 = add nsw i32 %29, 1
  store i32 %30, i32* %4, align 4
  br label %16

31:                                               ; preds = %16
  br label %32

32:                                               ; preds = %31
  %33 = load i32, i32* %3, align 4
  %34 = add nsw i32 %33, 1
  store i32 %34, i32* %3, align 4
  br label %11

35:                                               ; preds = %11
  store i32 0, i32* %7, align 4
  br label %36

36:                                               ; preds = %165, %35
  %37 = load i32, i32* %7, align 4
  store i32 %37, i32* %4, align 4
  br label %38

38:                                               ; preds = %56, %36
  %39 = load i32, i32* %4, align 4
  %40 = load i32, i32* %6, align 4
  %41 = load i32, i32* %7, align 4
  %42 = sub nsw i32 %40, %41
  %43 = sub nsw i32 %42, 1
  %44 = icmp sle i32 %39, %43
  br i1 %44, label %45, label %59

45:                                               ; preds = %38
  %46 = load i32, i32* %7, align 4
  %47 = sext i32 %46 to i64
  %48 = getelementptr inbounds [100 x [100 x i32]], [100 x [100 x i32]]* %2, i64 0, i64 %47
  %49 = load i32, i32* %4, align 4
  %50 = sext i32 %49 to i64
  %51 = getelementptr inbounds [100 x i32], [100 x i32]* %48, i64 0, i64 %50
  %52 = load i32, i32* %51, align 4
  %53 = call i32 (i8*, ...) @printf(i8* getelementptr inbounds ([4 x i8], [4 x i8]* @.str.2, i64 0, i64 0), i32 %52)
  %54 = load i32, i32* %8, align 4
  %55 = add nsw i32 %54, 1
  store i32 %55, i32* %8, align 4
  br label %56

56:                                               ; preds = %45
  %57 = load i32, i32* %4, align 4
  %58 = add nsw i32 %57, 1
  store i32 %58, i32* %4, align 4
  br label %38

59:                                               ; preds = %38
  %60 = load i32, i32* %8, align 4
  %61 = load i32, i32* %5, align 4
  %62 = load i32, i32* %6, align 4
  %63 = mul nsw i32 %61, %62
  %64 = icmp eq i32 %60, %63
  br i1 %64, label %65, label %66

65:                                               ; preds = %59
  br label %168

66:                                               ; preds = %59
  %67 = load i32, i32* %7, align 4
  %68 = add nsw i32 %67, 1
  store i32 %68, i32* %3, align 4
  br label %69

69:                                               ; preds = %90, %66
  %70 = load i32, i32* %3, align 4
  %71 = load i32, i32* %5, align 4
  %72 = load i32, i32* %7, align 4
  %73 = sub nsw i32 %71, %72
  %74 = sub nsw i32 %73, 1
  %75 = icmp sle i32 %70, %74
  br i1 %75, label %76, label %93

76:                                               ; preds = %69
  %77 = load i32, i32* %3, align 4
  %78 = sext i32 %77 to i64
  %79 = getelementptr inbounds [100 x [100 x i32]], [100 x [100 x i32]]* %2, i64 0, i64 %78
  %80 = load i32, i32* %6, align 4
  %81 = load i32, i32* %7, align 4
  %82 = sub nsw i32 %80, %81
  %83 = sub nsw i32 %82, 1
  %84 = sext i32 %83 to i64
  %85 = getelementptr inbounds [100 x i32], [100 x i32]* %79, i64 0, i64 %84
  %86 = load i32, i32* %85, align 4
  %87 = call i32 (i8*, ...) @printf(i8* getelementptr inbounds ([4 x i8], [4 x i8]* @.str.2, i64 0, i64 0), i32 %86)
  %88 = load i32, i32* %8, align 4
  %89 = add nsw i32 %88, 1
  store i32 %89, i32* %8, align 4
  br label %90

90:                                               ; preds = %76
  %91 = load i32, i32* %3, align 4
  %92 = add nsw i32 %91, 1
  store i32 %92, i32* %3, align 4
  br label %69

93:                                               ; preds = %69
  %94 = load i32, i32* %8, align 4
  %95 = load i32, i32* %5, align 4
  %96 = load i32, i32* %6, align 4
  %97 = mul nsw i32 %95, %96
  %98 = icmp eq i32 %94, %97
  br i1 %98, label %99, label %100

99:                                               ; preds = %93
  br label %168

100:                                              ; preds = %93
  %101 = load i32, i32* %6, align 4
  %102 = load i32, i32* %7, align 4
  %103 = sub nsw i32 %101, %102
  %104 = sub nsw i32 %103, 2
  store i32 %104, i32* %4, align 4
  br label %105

105:                                              ; preds = %123, %100
  %106 = load i32, i32* %4, align 4
  %107 = load i32, i32* %7, align 4
  %108 = icmp sge i32 %106, %107
  br i1 %108, label %109, label %126

109:                                              ; preds = %105
  %110 = load i32, i32* %5, align 4
  %111 = load i32, i32* %7, align 4
  %112 = sub nsw i32 %110, %111
  %113 = sub nsw i32 %112, 1
  %114 = sext i32 %113 to i64
  %115 = getelementptr inbounds [100 x [100 x i32]], [100 x [100 x i32]]* %2, i64 0, i64 %114
  %116 = load i32, i32* %4, align 4
  %117 = sext i32 %116 to i64
  %118 = getelementptr inbounds [100 x i32], [100 x i32]* %115, i64 0, i64 %117
  %119 = load i32, i32* %118, align 4
  %120 = call i32 (i8*, ...) @printf(i8* getelementptr inbounds ([4 x i8], [4 x i8]* @.str.2, i64 0, i64 0), i32 %119)
  %121 = load i32, i32* %8, align 4
  %122 = add nsw i32 %121, 1
  store i32 %122, i32* %8, align 4
  br label %123

123:                                              ; preds = %109
  %124 = load i32, i32* %4, align 4
  %125 = add nsw i32 %124, -1
  store i32 %125, i32* %4, align 4
  br label %105

126:                                              ; preds = %105
  %127 = load i32, i32* %8, align 4
  %128 = load i32, i32* %5, align 4
  %129 = load i32, i32* %6, align 4
  %130 = mul nsw i32 %128, %129
  %131 = icmp eq i32 %127, %130
  br i1 %131, label %132, label %133

132:                                              ; preds = %126
  br label %168

133:                                              ; preds = %126
  %134 = load i32, i32* %5, align 4
  %135 = load i32, i32* %7, align 4
  %136 = sub nsw i32 %134, %135
  %137 = sub nsw i32 %136, 2
  store i32 %137, i32* %3, align 4
  br label %138

138:                                              ; preds = %154, %133
  %139 = load i32, i32* %3, align 4
  %140 = load i32, i32* %7, align 4
  %141 = add nsw i32 %140, 1
  %142 = icmp sge i32 %139, %141
  br i1 %142, label %143, label %157

143:                                              ; preds = %138
  %144 = load i32, i32* %3, align 4
  %145 = sext i32 %144 to i64
  %146 = getelementptr inbounds [100 x [100 x i32]], [100 x [100 x i32]]* %2, i64 0, i64 %145
  %147 = load i32, i32* %7, align 4
  %148 = sext i32 %147 to i64
  %149 = getelementptr inbounds [100 x i32], [100 x i32]* %146, i64 0, i64 %148
  %150 = load i32, i32* %149, align 4
  %151 = call i32 (i8*, ...) @printf(i8* getelementptr inbounds ([4 x i8], [4 x i8]* @.str.2, i64 0, i64 0), i32 %150)
  %152 = load i32, i32* %8, align 4
  %153 = add nsw i32 %152, 1
  store i32 %153, i32* %8, align 4
  br label %154

154:                                              ; preds = %143
  %155 = load i32, i32* %3, align 4
  %156 = add nsw i32 %155, -1
  store i32 %156, i32* %3, align 4
  br label %138

157:                                              ; preds = %138
  %158 = load i32, i32* %8, align 4
  %159 = load i32, i32* %5, align 4
  %160 = load i32, i32* %6, align 4
  %161 = mul nsw i32 %159, %160
  %162 = icmp eq i32 %158, %161
  br i1 %162, label %163, label %164

163:                                              ; preds = %157
  br label %168

164:                                              ; preds = %157
  br label %165

165:                                              ; preds = %164
  %166 = load i32, i32* %7, align 4
  %167 = add nsw i32 %166, 1
  store i32 %167, i32* %7, align 4
  br label %36

168:                                              ; preds = %163, %132, %99, %65
  ret i32 0
}

; Function Attrs: argmemonly nounwind willreturn
declare void @llvm.memset.p0i8.i64(i8* nocapture writeonly, i8, i64, i1 immarg) #1

declare dso_local i32 @__isoc99_scanf(i8*, ...) #2

declare dso_local i32 @printf(i8*, ...) #2


!llvm.module.flags = !{!0}
!llvm.ident = !{!1}

!0 = !{i32 1, !"wchar_size", i32 4}
!1 = !{!"clang version 10.0.0-4ubuntu1 "}
